target datalayout = "e-m:e-p270:32:32-p271:32:32-p272:64:64-i64:64-i128:128-f80:128-n8:16:32:64-S128"
target triple = "x86_64-pc-linux-gnu"

%struct.BuildCtx = type { ptr, i32, ptr, ptr, ptr, ptr, i64, i32, i32, i32, i32, i32, ptr, ptr, ptr, ptr, ptr, ptr, ptr, ptr, ptr, [200 x %struct.BuildReloc] }
%struct.BuildReloc = type { i32, i32, i32 }
%struct.dasm_State = type { i64, ptr, ptr, i64, ptr, i64, ptr, ptr, i64, i32, i32, [1 x %struct.dasm_Section] }
%struct.dasm_Section = type { ptr, ptr, i64, i32, i32, i32 }

; Function Attrs: nounwind uwtable
define dso_local void @dasm_growpc(ptr noundef %0, i32 noundef %1) #0 {
  %3 = alloca ptr, align 8
  %4 = alloca i32, align 4
  %5 = alloca ptr, align 8
  %6 = alloca i64, align 8
  %7 = alloca i64, align 8
  %8 = alloca i64, align 8
  store ptr %0, ptr %3, align 8, !tbaa !4
  store i32 %1, ptr %4, align 4, !tbaa !9
  call void @llvm.lifetime.start.p0(i64 8, ptr %5) #12
  %9 = load ptr, ptr %3, align 8, !tbaa !4
  %10 = getelementptr inbounds nuw %struct.BuildCtx, ptr %9, i32 0, i32 0
  %11 = load ptr, ptr %10, align 8, !tbaa !13
  store ptr %11, ptr %5, align 8, !tbaa !23
  call void @llvm.lifetime.start.p0(i64 8, ptr %6) #12
  %12 = load ptr, ptr %5, align 8, !tbaa !23
  %13 = getelementptr inbounds nuw %struct.dasm_State, ptr %12, i32 0, i32 5
  %14 = load i64, ptr %13, align 8, !tbaa !30
  store i64 %14, ptr %6, align 8, !tbaa !11
  br label %15

15:                                               ; preds = %2
  call void @llvm.lifetime.start.p0(i64 8, ptr %7) #12
  %16 = load ptr, ptr %5, align 8, !tbaa !23
  %17 = getelementptr inbounds nuw %struct.dasm_State, ptr %16, i32 0, i32 5
  %18 = load i64, ptr %17, align 8, !tbaa !30
  store i64 %18, ptr %7, align 8, !tbaa !11
  call void @llvm.lifetime.start.p0(i64 8, ptr %8) #12
  %19 = load i32, ptr %4, align 4, !tbaa !9
  %20 = zext i32 %19 to i64
  %21 = mul i64 %20, 4
  store i64 %21, ptr %8, align 8, !tbaa !11
  %22 = load i64, ptr %7, align 8, !tbaa !11
  %23 = load i64, ptr %8, align 8, !tbaa !11
  %24 = icmp ult i64 %22, %23
  br i1 %24, label %25, label %55

25:                                               ; preds = %15
  %26 = load i64, ptr %7, align 8, !tbaa !11
  %27 = icmp ult i64 %26, 16
  br i1 %27, label %28, label %29

28:                                               ; preds = %25
  store i64 16, ptr %7, align 8, !tbaa !11
  br label %29

29:                                               ; preds = %28, %25
  br label %30

30:                                               ; preds = %34, %29
  %31 = load i64, ptr %7, align 8, !tbaa !11
  %32 = load i64, ptr %8, align 8, !tbaa !11
  %33 = icmp ult i64 %31, %32
  br i1 %33, label %34, label %38

34:                                               ; preds = %30
  %35 = load i64, ptr %7, align 8, !tbaa !11
  %36 = load i64, ptr %7, align 8, !tbaa !11
  %37 = add i64 %36, %35
  store i64 %37, ptr %7, align 8, !tbaa !11
  br label %30, !llvm.loop !38

38:                                               ; preds = %30
  %39 = load ptr, ptr %5, align 8, !tbaa !23
  %40 = getelementptr inbounds nuw %struct.dasm_State, ptr %39, i32 0, i32 4
  %41 = load ptr, ptr %40, align 8, !tbaa !29
  %42 = load i64, ptr %7, align 8, !tbaa !11
  %43 = call ptr @realloc(ptr noundef %41, i64 noundef %42) #13
  %44 = load ptr, ptr %5, align 8, !tbaa !23
  %45 = getelementptr inbounds nuw %struct.dasm_State, ptr %44, i32 0, i32 4
  store ptr %43, ptr %45, align 8, !tbaa !29
  %46 = load ptr, ptr %5, align 8, !tbaa !23
  %47 = getelementptr inbounds nuw %struct.dasm_State, ptr %46, i32 0, i32 4
  %48 = load ptr, ptr %47, align 8, !tbaa !29
  %49 = icmp eq ptr %48, null
  br i1 %49, label %50, label %51

50:                                               ; preds = %38
  call void @exit(i32 noundef 1) #14
  unreachable

51:                                               ; preds = %38
  %52 = load i64, ptr %7, align 8, !tbaa !11
  %53 = load ptr, ptr %5, align 8, !tbaa !23
  %54 = getelementptr inbounds nuw %struct.dasm_State, ptr %53, i32 0, i32 5
  store i64 %52, ptr %54, align 8, !tbaa !30
  br label %55

55:                                               ; preds = %51, %15
  call void @llvm.lifetime.end.p0(i64 8, ptr %8) #12
  call void @llvm.lifetime.end.p0(i64 8, ptr %7) #12
  br label %56

56:                                               ; preds = %55
  br label %57

57:                                               ; preds = %56
  %58 = load ptr, ptr %5, align 8, !tbaa !23
  %59 = getelementptr inbounds nuw %struct.dasm_State, ptr %58, i32 0, i32 4
  %60 = load ptr, ptr %59, align 8, !tbaa !29
  %61 = load i64, ptr %6, align 8, !tbaa !11
  %62 = getelementptr inbounds nuw i8, ptr %60, i64 %61
  %63 = load ptr, ptr %5, align 8, !tbaa !23
  %64 = getelementptr inbounds nuw %struct.dasm_State, ptr %63, i32 0, i32 5
  %65 = load i64, ptr %64, align 8, !tbaa !30
  %66 = load i64, ptr %6, align 8, !tbaa !11
  %67 = sub i64 %65, %66
  call void @llvm.memset.p0.i64(ptr align 1 %62, i8 0, i64 %67, i1 false)
  call void @llvm.lifetime.end.p0(i64 8, ptr %6) #12
  call void @llvm.lifetime.end.p0(i64 8, ptr %5) #12
  ret void
}