; Function Attrs: nounwind uwtable
define dso_local void @dasm_growpc(ptr noundef readonly captures(none) %0, i32 noundef %1) local_unnamed_addr #5 {
  %3 = load ptr, ptr %0, align 8, !tbaa !4
  %4 = getelementptr inbounds nuw i8, ptr %3, i64 40
  %5 = load i64, ptr %4, align 8, !tbaa !31
  %6 = zext i32 %1 to i64
  %7 = shl nuw nsw i64 %6, 2
  %8 = icmp ult i64 %5, %7
  br i1 %8, label %9, label %._crit_edge

._crit_edge:                                      ; preds = %2
  %.phi.trans.insert = getelementptr inbounds nuw i8, ptr %3, i64 32
  %.pre = load ptr, ptr %.phi.trans.insert, align 8, !tbaa !26
  br label %20

9:                                                ; preds = %2
  %spec.store.select = tail call i64 @llvm.umax.i64(i64 %5, i64 16)
  br label %10

10:                                               ; preds = %10, %9
  %.0 = phi i64 [ %spec.store.select, %9 ], [ %12, %10 ]
  %11 = icmp ult i64 %.0, %7
  %12 = shl nuw nsw i64 %.0, 1
  br i1 %11, label %10, label %13, !llvm.loop !32

13:                                               ; preds = %10
  %14 = getelementptr inbounds nuw i8, ptr %3, i64 32
  %15 = load ptr, ptr %14, align 8, !tbaa !26
  %16 = tail call ptr @realloc(ptr noundef %15, i64 noundef %.0) #26
  store ptr %16, ptr %14, align 8, !tbaa !26
  %17 = icmp eq ptr %16, null
  br i1 %17, label %18, label %19

18:                                               ; preds = %13
  tail call void @exit(i32 noundef 1) #24
  unreachable

19:                                               ; preds = %13
  store i64 %.0, ptr %4, align 8, !tbaa !31
  br label %20

20:                                               ; preds = %._crit_edge, %19
  %21 = phi i64 [ %5, %._crit_edge ], [ %.0, %19 ]
  %22 = phi ptr [ %.pre, %._crit_edge ], [ %16, %19 ]
  %23 = getelementptr inbounds nuw i8, ptr %22, i64 %5
  %24 = sub i64 %21, %5
  tail call void @llvm.memset.p0.i64(ptr align 1 %23, i8 0, i64 %24, i1 false)
  ret void
}